target datalayout = "e-m:e-p270:32:32-p271:32:32-p272:64:64-i64:64-i128:128-f80:128-n8:16:32:64-S128"
target triple = "x86_64-pc-linux-gnu"

%struct._GtkDarktableButton = type { %struct._GtkButton, ptr, i32, ptr, %struct._GdkRGBA, %struct._GdkRGBA, ptr }
%struct._GtkButton = type { %struct._GtkBin, ptr }
%struct._GtkBin = type { %struct._GtkContainer, ptr }
%struct._GtkContainer = type { %struct._GtkWidget, ptr }
%struct._GtkWidget = type { %struct._GObject, ptr }
%struct._GObject = type { %struct._GTypeInstance, i32, ptr }
%struct._GTypeInstance = type { ptr }
%struct._GdkRGBA = type { double, double, double, double }

@__func__.dtgtk_button_set_paint = private unnamed_addr constant [23 x i8] c"dtgtk_button_set_paint\00", align 1
@.str.2 = private unnamed_addr constant [15 x i8] c"button != NULL\00", align 1

; Function Attrs: nounwind uwtable
define void @dtgtk_button_set_paint(ptr noundef %0, ptr noundef %1, i32 noundef %2, ptr noundef %3) #0 {
  %5 = alloca ptr, align 8
  %6 = alloca ptr, align 8
  %7 = alloca i32, align 4
  %8 = alloca ptr, align 8
  %9 = alloca i32, align 4
  %10 = alloca i32, align 4
  store ptr %0, ptr %5, align 8, !tbaa !16
  store ptr %1, ptr %6, align 8, !tbaa !15
  store i32 %2, ptr %7, align 4, !tbaa !13
  store ptr %3, ptr %8, align 8, !tbaa !15
  br label %11

11:                                               ; preds = %4
  call void @llvm.lifetime.start.p0(i64 4, ptr %9) #9
  %12 = load ptr, ptr %5, align 8, !tbaa !16
  %13 = icmp ne ptr %12, null
  br i1 %13, label %14, label %15

14:                                               ; preds = %11
  store i32 1, ptr %9, align 4, !tbaa !13
  br label %16

15:                                               ; preds = %11
  store i32 0, ptr %9, align 4, !tbaa !13
  br label %16

16:                                               ; preds = %15, %14
  %17 = load i32, ptr %9, align 4, !tbaa !13
  store i32 %17, ptr %10, align 4, !tbaa !13
  call void @llvm.lifetime.end.p0(i64 4, ptr %9) #9
  %18 = load i32, ptr %10, align 4, !tbaa !13
  %19 = sext i32 %18 to i64
  %20 = call i64 @llvm.expect.i64(i64 %19, i64 1)
  %21 = icmp ne i64 %20, 0
  br i1 %21, label %22, label %23

22:                                               ; preds = %16
  br label %24

23:                                               ; preds = %16
  call void @g_return_if_fail_warning(ptr noundef null, ptr noundef @__func__.dtgtk_button_set_paint, ptr noundef @.str.2)
  br label %35

24:                                               ; preds = %22
  br label %25

25:                                               ; preds = %24
  %26 = load ptr, ptr %6, align 8, !tbaa !15
  %27 = load ptr, ptr %5, align 8, !tbaa !16
  %28 = getelementptr inbounds nuw %struct._GtkDarktableButton, ptr %27, i32 0, i32 1
  store ptr %26, ptr %28, align 8, !tbaa !18
  %29 = load i32, ptr %7, align 4, !tbaa !13
  %30 = load ptr, ptr %5, align 8, !tbaa !16
  %31 = getelementptr inbounds nuw %struct._GtkDarktableButton, ptr %30, i32 0, i32 2
  store i32 %29, ptr %31, align 8, !tbaa !35
  %32 = load ptr, ptr %8, align 8, !tbaa !15
  %33 = load ptr, ptr %5, align 8, !tbaa !16
  %34 = getelementptr inbounds nuw %struct._GtkDarktableButton, ptr %33, i32 0, i32 3
  store ptr %32, ptr %34, align 8, !tbaa !36
  br label %35

35:                                               ; preds = %25, %23
  ret void
}