; Function Attrs: nounwind uwtable
define void @dtgtk_button_set_paint(ptr noundef writeonly %0, ptr noundef %1, i32 noundef %2, ptr noundef %3) local_unnamed_addr #0 {
  %.not = icmp eq ptr %0, null
  br i1 %.not, label %5, label %6, !prof !32

5:                                                ; preds = %4
  tail call void @g_return_if_fail_warning(ptr noundef null, ptr noundef nonnull @__func__.dtgtk_button_set_paint, ptr noundef nonnull @.str.2) #9
  br label %10

6:                                                ; preds = %4
  %7 = getelementptr inbounds nuw i8, ptr %0, i64 56
  store ptr %1, ptr %7, align 8, !tbaa !10
  %8 = getelementptr inbounds nuw i8, ptr %0, i64 64
  store i32 %2, ptr %8, align 8, !tbaa !29
  %9 = getelementptr inbounds nuw i8, ptr %0, i64 72
  store ptr %3, ptr %9, align 8, !tbaa !30
  br label %10

10:                                               ; preds = %6, %5
  ret void
}